; Function Attrs: mustprogress uwtable
define dso_local noundef range(i32 -1, 1) i32 @_ZNK24btInverseDynamicsBullet313MultiBodyTree13MultiBodyImpl19getBodyAxisOfMotionEiPNS_4vec3E(ptr noundef nonnull readonly align 8 captures(none) dereferenceable(400) %0, i32 noundef %1, ptr noundef %2) local_unnamed_addr #0 align 2 {
  %4 = icmp sgt i32 %1, -1
  %5 = load i32, ptr %0, align 8
  %.not = icmp slt i32 %1, %5
  %or.cond = select i1 %4, i1 %.not, i1 false
  br i1 %or.cond, label %8, label %6

6:                                                ; preds = %3
  tail call void (ptr, ...) @b3OutputErrorMessageVarArgsInternal(ptr noundef nonnull @.str.16, ptr noundef nonnull @.str.17, i32 noundef 1164)
  %7 = load i32, ptr %0, align 8, !tbaa !4
  tail call void (ptr, ...) @b3OutputErrorMessageVarArgsInternal(ptr noundef nonnull @.str.30, i32 noundef %1, i32 noundef %7)
  br label %20

8:                                                ; preds = %3
  %9 = getelementptr inbounds nuw i8, ptr %0, i64 40
  %10 = load ptr, ptr %9, align 8, !tbaa !34
  %11 = zext nneg i32 %1 to i64
  %12 = getelementptr inbounds nuw %"struct.btInverseDynamicsBullet3::RigidBody", ptr %10, i64 %11
  %13 = getelementptr inbounds nuw i8, ptr %12, i64 420
  %14 = load i32, ptr %13, align 4, !tbaa !97
  switch i32 %14, label %19 [
    i32 1, label %15
    i32 2, label %17
  ]

15:                                               ; preds = %8
  %16 = getelementptr inbounds nuw i8, ptr %12, i64 488
  tail call void @llvm.memcpy.p0.p0.i64(ptr noundef nonnull align 4 dereferenceable(16) %2, ptr noundef nonnull align 8 dereferenceable(16) %16, i64 16, i1 false)
  br label %20

17:                                               ; preds = %8
  %18 = getelementptr inbounds nuw i8, ptr %12, i64 504
  tail call void @llvm.memcpy.p0.p0.i64(ptr noundef nonnull align 4 dereferenceable(16) %2, ptr noundef nonnull align 8 dereferenceable(16) %18, i64 16, i1 false)
  br label %20

19:                                               ; preds = %8
  tail call void @_ZN24btInverseDynamicsBullet37setZeroERNS_4vec3E(ptr noundef nonnull align 4 dereferenceable(16) %2)
  br label %20

20:                                               ; preds = %19, %17, %15, %6
  %.0 = phi i32 [ -1, %6 ], [ 0, %15 ], [ 0, %17 ], [ 0, %19 ]
  ret i32 %.0
}